; Function Attrs: mustprogress uwtable
define void @_ZN3zmq16tipc_connecter_t16start_connectingEv(ptr noundef nonnull align 8 dereferenceable(1544) %this) unnamed_addr #0 align 2 personality ptr @__gxx_personality_v0 {
entry:
  %ref.tmp = alloca %"struct.zmq::endpoint_uri_pair_t", align 8
  %call = tail call noundef i32 @_ZN3zmq16tipc_connecter_t4openEv(ptr noundef nonnull align 8 dereferenceable(1544) %this), !range !7
  %cmp = icmp eq i32 %call, 0
  br i1 %cmp, label %if.then, label %land.lhs.true

if.then:                                          ; preds = %entry
  %add.ptr = getelementptr inbounds i8, ptr %this, i64 1448
  %_s = getelementptr inbounds i8, ptr %this, i64 1472
  %0 = load i32, ptr %_s, align 8
  %call2 = tail call noundef ptr @_ZN3zmq11io_object_t6add_fdEi(ptr noundef nonnull align 8 dereferenceable(16) %add.ptr, i32 noundef %0)
  %_handle = getelementptr inbounds i8, ptr %this, i64 1480
  store ptr %call2, ptr %_handle, align 8
  tail call void @_ZN3zmq16tipc_connecter_t9out_eventEv(ptr noundef nonnull align 8 dereferenceable(1544) %this)
  br label %if.end20

land.lhs.true:                                    ; preds = %entry
  %call4 = tail call ptr @__errno_location() #12
  %1 = load i32, ptr %call4, align 4
  %cmp5 = icmp eq i32 %1, 115
  br i1 %cmp5, label %if.then6, label %if.else15

if.then6:                                         ; preds = %land.lhs.true
  %add.ptr7 = getelementptr inbounds i8, ptr %this, i64 1448
  %_s8 = getelementptr inbounds i8, ptr %this, i64 1472
  %2 = load i32, ptr %_s8, align 8
  %call9 = tail call noundef ptr @_ZN3zmq11io_object_t6add_fdEi(ptr noundef nonnull align 8 dereferenceable(16) %add.ptr7, i32 noundef %2)
  %_handle10 = getelementptr inbounds i8, ptr %this, i64 1480
  store ptr %call9, ptr %_handle10, align 8
  tail call void @_ZN3zmq11io_object_t11set_polloutEPv(ptr noundef nonnull align 8 dereferenceable(16) %add.ptr7, ptr noundef %call9)
  %_socket = getelementptr inbounds i8, ptr %this, i64 1520
  %3 = load ptr, ptr %_socket, align 8
  %_endpoint = getelementptr inbounds i8, ptr %this, i64 1488
  call void @_ZN3zmq38make_unconnected_connect_endpoint_pairERKNSt7__cxx1112basic_stringIcSt11char_traitsIcESaIcEEE(ptr nonnull sret(%"struct.zmq::endpoint_uri_pair_t") align 8 %ref.tmp, ptr noundef nonnull align 8 dereferenceable(32) %_endpoint)
  %call13 = invoke i32 @zmq_errno()
          to label %invoke.cont unwind label %lpad

invoke.cont:                                      ; preds = %if.then6
  invoke void @_ZN3zmq13socket_base_t21event_connect_delayedERKNS_19endpoint_uri_pair_tEi(ptr noundef nonnull align 8 dereferenceable(1825) %3, ptr noundef nonnull align 8 dereferenceable(68) %ref.tmp, i32 noundef %call13)
          to label %invoke.cont14 unwind label %lpad

invoke.cont14:                                    ; preds = %invoke.cont
  %remote.i = getelementptr inbounds i8, ptr %ref.tmp, i64 32
  call void @_ZNSt7__cxx1112basic_stringIcSt11char_traitsIcESaIcEED1Ev(ptr noundef nonnull align 8 dereferenceable(32) %remote.i) #10
  call void @_ZNSt7__cxx1112basic_stringIcSt11char_traitsIcESaIcEED1Ev(ptr noundef nonnull align 8 dereferenceable(32) %ref.tmp) #10
  br label %if.end20

lpad:                                             ; preds = %invoke.cont, %if.then6
  %4 = landingpad { ptr, i32 }
          cleanup
  %remote.i2 = getelementptr inbounds i8, ptr %ref.tmp, i64 32
  call void @_ZNSt7__cxx1112basic_stringIcSt11char_traitsIcESaIcEED1Ev(ptr noundef nonnull align 8 dereferenceable(32) %remote.i2) #10
  call void @_ZNSt7__cxx1112basic_stringIcSt11char_traitsIcESaIcEED1Ev(ptr noundef nonnull align 8 dereferenceable(32) %ref.tmp) #10
  resume { ptr, i32 } %4

if.else15:                                        ; preds = %land.lhs.true
  %_s16 = getelementptr inbounds i8, ptr %this, i64 1472
  %5 = load i32, ptr %_s16, align 8
  %cmp17.not = icmp eq i32 %5, -1
  br i1 %cmp17.not, label %if.end, label %if.then18

if.then18:                                        ; preds = %if.else15
  tail call void @_ZN3zmq23stream_connecter_base_t5closeEv(ptr noundef nonnull align 8 dereferenceable(1544) %this)
  br label %if.end

if.end:                                           ; preds = %if.then18, %if.else15
  tail call void @_ZN3zmq23stream_connecter_base_t19add_reconnect_timerEv(ptr noundef nonnull align 8 dereferenceable(1544) %this)
  br label %if.end20

if.end20:                                         ; preds = %invoke.cont14, %if.end, %if.then
  ret void
}